target datalayout = "e-m:e-p270:32:32-p271:32:32-p272:64:64-i64:64-i128:128-f80:128-n8:16:32:64-S128"
target triple = "x86_64-pc-linux-gnu"

; Function Attrs: mustprogress nounwind uwtable
define dso_local i64 @meshopt_unstripify(ptr noundef %0, ptr noundef %1, i64 noundef %2, i32 noundef %3) #2 {
  %5 = alloca ptr, align 8
  %6 = alloca ptr, align 8
  %7 = alloca i64, align 8
  %8 = alloca i32, align 4
  %9 = alloca i64, align 8
  %10 = alloca i64, align 8
  %11 = alloca i64, align 8
  %12 = alloca i32, align 4
  %13 = alloca i32, align 4
  %14 = alloca i32, align 4
  %15 = alloca i32, align 4
  store ptr %0, ptr %5, align 8, !tbaa !4
  store ptr %1, ptr %6, align 8, !tbaa !4
  store i64 %2, ptr %7, align 8, !tbaa !9
  store i32 %3, ptr %8, align 4, !tbaa !11
  call void @llvm.lifetime.start.p0(i64 8, ptr %9) #8
  store i64 0, ptr %9, align 8, !tbaa !9
  call void @llvm.lifetime.start.p0(i64 8, ptr %10) #8
  store i64 0, ptr %10, align 8, !tbaa !9
  call void @llvm.lifetime.start.p0(i64 8, ptr %11) #8
  store i64 0, ptr %11, align 8, !tbaa !9
  br label %16

16:                                               ; preds = %96, %4
  %17 = load i64, ptr %11, align 8, !tbaa !9
  %18 = load i64, ptr %7, align 8, !tbaa !9
  %19 = icmp ult i64 %17, %18
  br i1 %19, label %21, label %20

20:                                               ; preds = %16
  call void @llvm.lifetime.end.p0(i64 8, ptr %11) #8
  br label %99

21:                                               ; preds = %16
  %22 = load i32, ptr %8, align 4, !tbaa !11
  %23 = icmp ne i32 %22, 0
  br i1 %23, label %24, label %34

24:                                               ; preds = %21
  %25 = load ptr, ptr %6, align 8, !tbaa !4
  %26 = load i64, ptr %11, align 8, !tbaa !9
  %27 = getelementptr inbounds nuw i32, ptr %25, i64 %26
  %28 = load i32, ptr %27, align 4, !tbaa !11
  %29 = load i32, ptr %8, align 4, !tbaa !11
  %30 = icmp eq i32 %28, %29
  br i1 %30, label %31, label %34

31:                                               ; preds = %24
  %32 = load i64, ptr %11, align 8, !tbaa !9
  %33 = add i64 %32, 1
  store i64 %33, ptr %10, align 8, !tbaa !9
  br label %95

34:                                               ; preds = %24, %21
  %35 = load i64, ptr %11, align 8, !tbaa !9
  %36 = load i64, ptr %10, align 8, !tbaa !9
  %37 = sub i64 %35, %36
  %38 = icmp uge i64 %37, 2
  br i1 %38, label %39, label %94

39:                                               ; preds = %34
  call void @llvm.lifetime.start.p0(i64 4, ptr %12) #8
  %40 = load ptr, ptr %6, align 8, !tbaa !4
  %41 = load i64, ptr %11, align 8, !tbaa !9
  %42 = sub i64 %41, 2
  %43 = getelementptr inbounds nuw i32, ptr %40, i64 %42
  %44 = load i32, ptr %43, align 4, !tbaa !11
  store i32 %44, ptr %12, align 4, !tbaa !11
  call void @llvm.lifetime.start.p0(i64 4, ptr %13) #8
  %45 = load ptr, ptr %6, align 8, !tbaa !4
  %46 = load i64, ptr %11, align 8, !tbaa !9
  %47 = sub i64 %46, 1
  %48 = getelementptr inbounds nuw i32, ptr %45, i64 %47
  %49 = load i32, ptr %48, align 4, !tbaa !11
  store i32 %49, ptr %13, align 4, !tbaa !11
  call void @llvm.lifetime.start.p0(i64 4, ptr %14) #8
  %50 = load ptr, ptr %6, align 8, !tbaa !4
  %51 = load i64, ptr %11, align 8, !tbaa !9
  %52 = getelementptr inbounds nuw i32, ptr %50, i64 %51
  %53 = load i32, ptr %52, align 4, !tbaa !11
  store i32 %53, ptr %14, align 4, !tbaa !11
  %54 = load i64, ptr %11, align 8, !tbaa !9
  %55 = load i64, ptr %10, align 8, !tbaa !9
  %56 = sub i64 %54, %55
  %57 = and i64 %56, 1
  %58 = icmp ne i64 %57, 0
  br i1 %58, label %59, label %63

59:                                               ; preds = %39
  call void @llvm.lifetime.start.p0(i64 4, ptr %15) #8
  %60 = load i32, ptr %12, align 4, !tbaa !11
  store i32 %60, ptr %15, align 4, !tbaa !11
  %61 = load i32, ptr %13, align 4, !tbaa !11
  store i32 %61, ptr %12, align 4, !tbaa !11
  %62 = load i32, ptr %15, align 4, !tbaa !11
  store i32 %62, ptr %13, align 4, !tbaa !11
  call void @llvm.lifetime.end.p0(i64 4, ptr %15) #8
  br label %63

63:                                               ; preds = %59, %39
  %64 = load i32, ptr %12, align 4, !tbaa !11
  %65 = load i32, ptr %13, align 4, !tbaa !11
  %66 = icmp ne i32 %64, %65
  br i1 %66, label %67, label %93

67:                                               ; preds = %63
  %68 = load i32, ptr %12, align 4, !tbaa !11
  %69 = load i32, ptr %14, align 4, !tbaa !11
  %70 = icmp ne i32 %68, %69
  br i1 %70, label %71, label %93

71:                                               ; preds = %67
  %72 = load i32, ptr %13, align 4, !tbaa !11
  %73 = load i32, ptr %14, align 4, !tbaa !11
  %74 = icmp ne i32 %72, %73
  br i1 %74, label %75, label %93

75:                                               ; preds = %71
  %76 = load i32, ptr %12, align 4, !tbaa !11
  %77 = load ptr, ptr %5, align 8, !tbaa !4
  %78 = load i64, ptr %9, align 8, !tbaa !9
  %79 = add i64 %78, 0
  %80 = getelementptr inbounds nuw i32, ptr %77, i64 %79
  store i32 %76, ptr %80, align 4, !tbaa !11
  %81 = load i32, ptr %13, align 4, !tbaa !11
  %82 = load ptr, ptr %5, align 8, !tbaa !4
  %83 = load i64, ptr %9, align 8, !tbaa !9
  %84 = add i64 %83, 1
  %85 = getelementptr inbounds nuw i32, ptr %82, i64 %84
  store i32 %81, ptr %85, align 4, !tbaa !11
  %86 = load i32, ptr %14, align 4, !tbaa !11
  %87 = load ptr, ptr %5, align 8, !tbaa !4
  %88 = load i64, ptr %9, align 8, !tbaa !9
  %89 = add i64 %88, 2
  %90 = getelementptr inbounds nuw i32, ptr %87, i64 %89
  store i32 %86, ptr %90, align 4, !tbaa !11
  %91 = load i64, ptr %9, align 8, !tbaa !9
  %92 = add i64 %91, 3
  store i64 %92, ptr %9, align 8, !tbaa !9
  br label %93

93:                                               ; preds = %75, %71, %67, %63
  call void @llvm.lifetime.end.p0(i64 4, ptr %14) #8
  call void @llvm.lifetime.end.p0(i64 4, ptr %13) #8
  call void @llvm.lifetime.end.p0(i64 4, ptr %12) #8
  br label %94

94:                                               ; preds = %93, %34
  br label %95

95:                                               ; preds = %94, %31
  br label %96

96:                                               ; preds = %95
  %97 = load i64, ptr %11, align 8, !tbaa !9
  %98 = add i64 %97, 1
  store i64 %98, ptr %11, align 8, !tbaa !9
  br label %16, !llvm.loop !28

99:                                               ; preds = %20
  %100 = load i64, ptr %9, align 8, !tbaa !9
  call void @llvm.lifetime.end.p0(i64 8, ptr %10) #8
  call void @llvm.lifetime.end.p0(i64 8, ptr %9) #8
  ret i64 %100
}