; Function Attrs: mustprogress nofree norecurse nosync nounwind memory(argmem: readwrite) uwtable
define dso_local i64 @meshopt_unstripify(ptr noundef writeonly captures(none) %0, ptr noundef readonly captures(none) %1, i64 noundef %2, i32 noundef %3) local_unnamed_addr #6 {
  %.not54 = icmp eq i64 %2, 0
  br i1 %.not54, label %._crit_edge, label %.lr.ph

.lr.ph:                                           ; preds = %4
  %.not = icmp eq i32 %3, 0
  br i1 %.not, label %.lr.ph.split.us, label %.lr.ph.split

.lr.ph.split.us:                                  ; preds = %.lr.ph, %20
  %.053.us = phi i64 [ %.2.us, %20 ], [ 0, %.lr.ph ]
  %.04151.us = phi i64 [ %21, %20 ], [ 0, %.lr.ph ]
  %5 = icmp ugt i64 %.04151.us, 1
  br i1 %5, label %6, label %20

6:                                                ; preds = %.lr.ph.split.us
  %7 = getelementptr i32, ptr %1, i64 %.04151.us
  %8 = getelementptr i8, ptr %7, i64 -8
  %9 = load i32, ptr %8, align 4, !tbaa !8
  %10 = getelementptr i8, ptr %7, i64 -4
  %11 = load i32, ptr %10, align 4, !tbaa !8
  %12 = load i32, ptr %7, align 4, !tbaa !8
  %13 = and i64 %.04151.us, 1
  %.not45.us = icmp eq i64 %13, 0
  %spec.select.us = select i1 %.not45.us, i32 %9, i32 %11
  %spec.select49.us = select i1 %.not45.us, i32 %11, i32 %9
  %.not46.us = icmp eq i32 %11, %9
  %.not47.us = icmp eq i32 %spec.select.us, %12
  %.not48.us = icmp eq i32 %spec.select49.us, %12
  %14 = or i1 %.not47.us, %.not48.us
  %or.cond50.us = select i1 %.not46.us, i1 true, i1 %14
  br i1 %or.cond50.us, label %20, label %15

15:                                               ; preds = %6
  %16 = getelementptr inbounds nuw i32, ptr %0, i64 %.053.us
  store i32 %spec.select.us, ptr %16, align 4, !tbaa !8
  %17 = getelementptr i8, ptr %16, i64 4
  store i32 %spec.select49.us, ptr %17, align 4, !tbaa !8
  %18 = getelementptr i8, ptr %16, i64 8
  store i32 %12, ptr %18, align 4, !tbaa !8
  %19 = add i64 %.053.us, 3
  br label %20

20:                                               ; preds = %15, %6, %.lr.ph.split.us
  %.2.us = phi i64 [ %.053.us, %.lr.ph.split.us ], [ %19, %15 ], [ %.053.us, %6 ]
  %21 = add nuw i64 %.04151.us, 1
  %exitcond56.not = icmp eq i64 %21, %2
  br i1 %exitcond56.not, label %._crit_edge, label %.lr.ph.split.us, !llvm.loop !21

._crit_edge:                                      ; preds = %42, %20, %4
  %.0.lcssa = phi i64 [ 0, %4 ], [ %.2.us, %20 ], [ %.2, %42 ]
  ret i64 %.0.lcssa

.lr.ph.split:                                     ; preds = %.lr.ph, %42
  %.053 = phi i64 [ %.2, %42 ], [ 0, %.lr.ph ]
  %.03752 = phi i64 [ %.138, %42 ], [ 0, %.lr.ph ]
  %.04151 = phi i64 [ %43, %42 ], [ 0, %.lr.ph ]
  %22 = getelementptr i32, ptr %1, i64 %.04151
  %23 = load i32, ptr %22, align 4, !tbaa !8
  %24 = icmp eq i32 %23, %3
  br i1 %24, label %25, label %27

25:                                               ; preds = %.lr.ph.split
  %26 = add nuw i64 %.04151, 1
  br label %42

27:                                               ; preds = %.lr.ph.split
  %28 = sub i64 %.04151, %.03752
  %29 = icmp ugt i64 %28, 1
  br i1 %29, label %30, label %42

30:                                               ; preds = %27
  %31 = getelementptr i8, ptr %22, i64 -8
  %32 = load i32, ptr %31, align 4, !tbaa !8
  %33 = getelementptr i8, ptr %22, i64 -4
  %34 = load i32, ptr %33, align 4, !tbaa !8
  %35 = and i64 %28, 1
  %.not45 = icmp eq i64 %35, 0
  %spec.select = select i1 %.not45, i32 %32, i32 %34
  %spec.select49 = select i1 %.not45, i32 %34, i32 %32
  %.not46 = icmp eq i32 %34, %32
  %.not47 = icmp eq i32 %spec.select, %23
  %.not48 = icmp eq i32 %spec.select49, %23
  %36 = or i1 %.not47, %.not48
  %or.cond50 = or i1 %.not46, %36
  br i1 %or.cond50, label %42, label %37

37:                                               ; preds = %30
  %38 = getelementptr inbounds nuw i32, ptr %0, i64 %.053
  store i32 %spec.select, ptr %38, align 4, !tbaa !8
  %39 = getelementptr i8, ptr %38, i64 4
  store i32 %spec.select49, ptr %39, align 4, !tbaa !8
  %40 = getelementptr i8, ptr %38, i64 8
  store i32 %23, ptr %40, align 4, !tbaa !8
  %41 = add i64 %.053, 3
  br label %42

42:                                               ; preds = %30, %37, %25, %27
  %.138 = phi i64 [ %26, %25 ], [ %.03752, %27 ], [ %.03752, %37 ], [ %.03752, %30 ]
  %.2 = phi i64 [ %.053, %25 ], [ %.053, %27 ], [ %41, %37 ], [ %.053, %30 ]
  %43 = add nuw i64 %.04151, 1
  %exitcond.not = icmp eq i64 %43, %2
  br i1 %exitcond.not, label %._crit_edge, label %.lr.ph.split, !llvm.loop !21
}